; Function Attrs: mustprogress nofree norecurse nosync nounwind willreturn memory(write, argmem: none, inaccessiblemem: none) uwtable
define void @b2World_SetCustomFilterCallback(i32 %0, ptr noundef %1, ptr noundef %2) local_unnamed_addr #14 {
  %4 = and i32 %0, 65535
  %5 = zext nneg i32 %4 to i64
  %6 = getelementptr %struct.b2World, ptr @b2_worlds, i64 %5
  %7 = getelementptr i8, ptr %6, i64 -88
  store ptr %1, ptr %7, align 8, !tbaa !460
  %8 = getelementptr i8, ptr %6, i64 -80
  store ptr %2, ptr %8, align 16, !tbaa !461
  ret void
}